target datalayout = "e-m:e-p270:32:32-p271:32:32-p272:64:64-i64:64-i128:128-f80:128-n8:16:32:64-S128"
target triple = "x86_64-unknown-linux-gnu"

@progress_printed = dso_local global i64 0, align 8
@progress_full = dso_local global i64 0, align 8
@stdout = external global ptr, align 8
@.str.6 = private unnamed_addr constant [3 x i8] c"%c\00", align 1

; Function Attrs: nounwind uwtable
define dso_local void @memtest_progress_step(i64 noundef %curr, i64 noundef %size, i8 noundef signext %c) #0 {
entry:
  %curr.addr = alloca i64, align 8
  %size.addr = alloca i64, align 8
  %c.addr = alloca i8, align 1
  %chars = alloca i64, align 8
  %j = alloca i64, align 8
  store i64 %curr, ptr %curr.addr, align 8
  store i64 %size, ptr %size.addr, align 8
  store i8 %c, ptr %c.addr, align 1
  %0 = load i64, ptr %curr.addr, align 8
  %1 = load i64, ptr @progress_full, align 8
  %mul = mul i64 %0, %1
  %2 = load i64, ptr %size.addr, align 8
  %div = udiv i64 %mul, %2
  store i64 %div, ptr %chars, align 8
  store i64 0, ptr %j, align 8
  br label %for.cond

for.cond:                                         ; preds = %for.inc, %entry
  %3 = load i64, ptr %j, align 8
  %4 = load i64, ptr %chars, align 8
  %5 = load i64, ptr @progress_printed, align 8
  %sub = sub i64 %4, %5
  %cmp = icmp ult i64 %3, %sub
  br i1 %cmp, label %for.body, label %for.end

for.body:                                         ; preds = %for.cond
  %6 = load i8, ptr %c.addr, align 1
  %conv = sext i8 %6 to i32
  %call = call i32 (ptr, ...) @printf(ptr noundef @.str.6, i32 noundef %conv)
  br label %for.inc

for.inc:                                          ; preds = %for.body
  %7 = load i64, ptr %j, align 8
  %inc = add i64 %7, 1
  store i64 %inc, ptr %j, align 8
  br label %for.cond, !llvm.loop !7

for.end:                                          ; preds = %for.cond
  %8 = load i64, ptr %chars, align 8
  store i64 %8, ptr @progress_printed, align 8
  %9 = load ptr, ptr @stdout, align 8
  %call1 = call i32 @fflush(ptr noundef %9)
  ret void
}