; Function Attrs: nofree nounwind uwtable
define dso_local void @memtest_progress_step(i64 noundef %curr, i64 noundef %size, i8 noundef signext %c) local_unnamed_addr #0 {
entry:
  %0 = load i64, ptr @progress_full, align 8
  %mul = mul i64 %0, %curr
  %div = udiv i64 %mul, %size
  %1 = load i64, ptr @progress_printed, align 8
  %cmp4.not = icmp eq i64 %div, %1
  br i1 %cmp4.not, label %for.end, label %for.body.lr.ph

for.body.lr.ph:                                   ; preds = %entry
  %conv = sext i8 %c to i32
  br label %for.body

for.body:                                         ; preds = %for.body.lr.ph, %for.body
  %j.05 = phi i64 [ 0, %for.body.lr.ph ], [ %inc, %for.body ]
  %putchar = tail call i32 @putchar(i32 %conv)
  %inc = add nuw i64 %j.05, 1
  %2 = load i64, ptr @progress_printed, align 8
  %sub = sub i64 %div, %2
  %cmp = icmp ult i64 %inc, %sub
  br i1 %cmp, label %for.body, label %for.end, !llvm.loop !7

for.end:                                          ; preds = %for.body, %entry
  store i64 %div, ptr @progress_printed, align 8
  %3 = load ptr, ptr @stdout, align 8
  %call1 = tail call i32 @fflush(ptr noundef %3)
  ret void
}